; Function Attrs: nounwind uwtable
define nonnull ptr @l_Lean_Name_hasMacroScopes___boxed(ptr noundef %0) local_unnamed_addr #0 {
  br label %2

2:                                                ; preds = %23, %1
  %.08.i = phi ptr [ %0, %1 ], [ %25, %23 ]
  %3 = ptrtoint ptr %.08.i to i64
  %4 = and i64 %3, 1
  %.not.i.i = icmp eq i64 %4, 0
  br i1 %.not.i.i, label %8, label %5

5:                                                ; preds = %2
  %6 = lshr i64 %3, 1
  %7 = trunc i64 %6 to i32
  br label %lean_obj_tag.exit.i

8:                                                ; preds = %2
  %9 = getelementptr i8, ptr %.08.i, i64 4
  %.val.i.i = load i32, ptr %9, align 4
  %10 = lshr i32 %.val.i.i, 24
  br label %lean_obj_tag.exit.i

lean_obj_tag.exit.i:                              ; preds = %8, %5
  %.0.i.i = phi i32 [ %7, %5 ], [ %10, %8 ]
  switch i32 %.0.i.i, label %23 [
    i32 0, label %l_Lean_Name_hasMacroScopes.exit
    i32 1, label %11
  ]

11:                                               ; preds = %lean_obj_tag.exit.i
  %12 = getelementptr inbounds nuw i8, ptr %.08.i, i64 16
  %13 = load ptr, ptr %12, align 8, !tbaa !10
  %14 = load ptr, ptr @l_Lean_Name_hasMacroScopes___closed__1, align 8, !tbaa !10
  %15 = icmp eq ptr %13, %14
  br i1 %15, label %l_Lean_Name_hasMacroScopes.exit, label %16

16:                                               ; preds = %11
  %17 = getelementptr i8, ptr %13, i64 8
  %.val.i.i.i = load i64, ptr %17, align 8, !tbaa !17
  %18 = getelementptr i8, ptr %14, i64 8
  %.val7.i.i.i = load i64, ptr %18, align 8, !tbaa !17
  %19 = icmp eq i64 %.val.i.i.i, %.val7.i.i.i
  br i1 %19, label %20, label %l_Lean_Name_hasMacroScopes.exit

20:                                               ; preds = %16
  %21 = tail call zeroext i1 @lean_string_eq_cold(ptr noundef nonnull %13, ptr noundef nonnull %14) #11
  %22 = select i1 %21, i64 3, i64 1
  br label %l_Lean_Name_hasMacroScopes.exit

23:                                               ; preds = %lean_obj_tag.exit.i
  %24 = getelementptr inbounds nuw i8, ptr %.08.i, i64 8
  %25 = load ptr, ptr %24, align 8, !tbaa !10
  br label %2

l_Lean_Name_hasMacroScopes.exit:                  ; preds = %lean_obj_tag.exit.i, %11, %16, %20
  %.0.i = phi i64 [ 3, %11 ], [ 1, %16 ], [ %22, %20 ], [ 1, %lean_obj_tag.exit.i ]
  %26 = ptrtoint ptr %0 to i64
  %27 = and i64 %26, 1
  %.not = icmp eq i64 %27, 0
  br i1 %.not, label %28, label %lean_dec.exit

28:                                               ; preds = %l_Lean_Name_hasMacroScopes.exit
  %29 = load i32, ptr %0, align 4, !tbaa !4
  %30 = icmp sgt i32 %29, 1
  br i1 %30, label %31, label %33, !prof !9

31:                                               ; preds = %28
  %32 = add nsw i32 %29, -1
  store i32 %32, ptr %0, align 4, !tbaa !4
  br label %lean_dec.exit

33:                                               ; preds = %28
  %.not.i = icmp eq i32 %29, 0
  br i1 %.not.i, label %lean_dec.exit, label %34

34:                                               ; preds = %33
  tail call void @lean_dec_ref_cold(ptr noundef nonnull %0) #11
  br label %lean_dec.exit

lean_dec.exit:                                    ; preds = %34, %33, %31, %l_Lean_Name_hasMacroScopes.exit
  %35 = inttoptr i64 %.0.i to ptr
  ret ptr %35
}